ccopy_reg
_reconstructor
p0
(chelper.SparseMatrix
SparseMatrix
p1
c__builtin__
object
p2
Ntp3
Rp4
(dp5
S'matrix'
p6
(dp7
sS'original'
p8
(dp9
(S'3'
p10
S'6'
p11
tp12
F2.5891079552706175
s(S'``1'
p13
g11
tp14
F2.535555676252605
s(S'5'
p15
g11
tp16
F0.2550057326894576
s(S'2'
p17
g11
tp18
F2.4855545343062984
s(g15
S'4'
p19
tp20
F0.9923921414052889
s(g19
g11
tp21
F0.7451378162975878
s(g13
g15
tp22
F2.7614350594558275
s(g13
g17
tp23
F0.1146725773293714
s(g13
g19
tp24
F2.276023160978666
s(g10
g13
tp25
F0.11763697402590677
s(g10
g17
tp26
F0.10568931420946502
s(g10
g19
tp27
F2.2716531282005197
s(g17
g15
tp28
F2.7176968828124286
s(g10
g15
tp29
F2.8221063957483783
s(g17
g19
tp30
F2.1827031348785617
ssS'points'
p31
c__builtin__
set
p32
((lp33
(g15
g11
g19
g10
g17
g13
tp34
atp35
Rp36
sS'clusters'
p37
(lp38
sS'data'
p39
(lp40
(dp41
S'cluster'
p42
I0
sS'expressions'
p43
(lp44
F0.88845
aF0.96682
aF0.93679
aF0.81723
aF0.88242
asS'id'
p45
g13
sS'truth'
p46
I1
sS'visited'
p47
I00
sa(dp48
g42
I0
sg43
(lp49
F0.86257
aF0.85462
aF0.86419
aF0.84451
aF0.86159
asg45
g17
sg46
I1
sg47
I00
sa(dp50
g42
I0
sg43
(lp51
F0.9402
aF0.91072
aF0.93074
aF0.93317
aF0.94034
asg45
g10
sg46
I1
sg47
I00
sa(dp52
g42
I0
sg43
(lp53
F-0.57792
aF-1.008
aF-0.81377
aF-0.3012
aF-0.55201
asg45
g19
sg46
I2
sg47
I00
sa(dp54
g42
I0
sg43
(lp55
F-1.1451
aF-0.90137
aF-1.0215
aF-1.2628
aF-1.1573
asg45
g15
sg46
I2
sg47
I00
sa(dp56
g42
I0
sg43
(lp57
F-0.96824
aF-0.82282
aF-0.89646
aF-1.0309
aF-0.97505
asg45
g11
sg46
I2
sg47
I00
sasg45
I5
sS'history'
p58
(lp59
(dp60
((g17
tp61
(g15
tp62
tp63
F2.7176968828124286
s((g15
tp64
(g11
tp65
tp66
F0.2550057326894576
s((g13
tp67
(g15
tp68
tp69
F2.7614350594558275
s((g19
tp70
(g11
tp71
tp72
F0.7451378162975878
s((g10
tp73
(g15
tp74
tp75
F2.8221063957483783
s((g10
tp76
(g13
tp77
tp78
F0.11763697402590677
s((g17
tp79
(g11
tp80
tp81
F2.4855545343062984
s((g10
tp82
(g19
tp83
tp84
F2.2716531282005197
s((g13
tp85
(g17
tp86
tp87
F0.1146725773293714
s((g15
tp88
(g19
tp89
tp90
F0.9923921414052889
s((g13
tp91
(g19
tp92
tp93
F2.276023160978666
s((g10
tp94
(g11
tp95
tp96
F2.5891079552706175
s((g17
tp97
(g19
tp98
tp99
F2.1827031348785617
s((g13
tp100
(g11
tp101
tp102
F2.535555676252605
s((g10
tp103
(g17
tp104
tp105
F0.10568931420946502
sa(dp106
g66
F0.2550057326894576
sg69
F2.7614350594558275
sg72
F0.7451378162975878
s((g10
g17
tp107
(g15
tp108
tp109
F2.7176968828124286
s(g107
(g19
tp110
tp111
F2.1827031348785617
sg90
F0.9923921414052889
s(g107
(g11
tp112
tp113
F2.4855545343062984
sg93
F2.276023160978666
s(g107
(g13
tp114
tp115
F0.1146725773293714
sg102
F2.535555676252605
sa(dp116
g66
F0.2550057326894576
sg72
F0.7451378162975878
s((g10
g17
g13
tp117
g108
tp118
F2.7176968828124286
s(g117
g112
tp119
F2.4855545343062984
sg90
F0.9923921414052889
s(g117
g110
tp120
F2.1827031348785617
sa(dp121
g120
F2.1827031348785617
s((g15
g11
tp122
g117
tp123
F2.4855545343062984
s(g122
g110
tp124
F0.7451378162975878
sa(dp125
((g15
g11
g19
tp126
g117
tp127
F2.1827031348785617
sasb.