ccopy_reg
_reconstructor
p0
(chelper.SparseMatrix
SparseMatrix
p1
c__builtin__
object
p2
Ntp3
Rp4
(dp5
S'matrix'
p6
(dp7
sS'original'
p8
(dp9
(S'3'
p10
S'6'
p11
tp12
F4.184764488259764
s(S'5'
p13
g11
tp14
F0.37426893565990754
s(S'2'
p15
g11
tp16
F4.019448692283557
s(g13
S'4'
p17
tp18
F1.2912263187760695
s(g17
g11
tp19
F0.9512643704564993
s(S'1'
p20
g11
tp21
F4.108125356656002
s(g10
g13
tp22
F4.545961403949664
s(g10
g15
tp23
F0.1663270498145146
s(g10
g17
tp24
F3.5749500321403094
s(g20
g13
tp25
F4.466244695714734
s(g20
g17
tp26
F3.524640465735477
s(g20
g15
tp27
F0.14038326716528574
s(g15
g13
tp28
F4.380266972833962
s(g20
g10
tp29
F0.15052802064732007
s(g15
g17
tp30
F3.416259772060667
ssS'points'
p31
c__builtin__
set
p32
((lp33
(g13
g11
g17
g20
g15
g10
tp34
atp35
Rp36
sS'clusters'
p37
(lp38
sS'data'
p39
(lp40
(dp41
S'cluster'
p42
I0
sS'expressions'
p43
(lp44
F0.88845
aF0.96682
aF0.93679
aF0.81723
aF0.88242
asS'id'
p45
g20
sS'truth'
p46
I1
sS'visited'
p47
I00
sa(dp48
g42
I0
sg43
(lp49
F0.86257
aF0.85462
aF0.86419
aF0.84451
aF0.86159
asg45
g15
sg46
I1
sg47
I00
sa(dp50
g42
I0
sg43
(lp51
F0.9402
aF0.91072
aF0.93074
aF0.93317
aF0.94034
asg45
g10
sg46
I1
sg47
I00
sa(dp52
g42
I0
sg43
(lp53
F-0.57792
aF-1.008
aF-0.81377
aF-0.3012
aF-0.55201
asg45
g17
sg46
I2
sg47
I00
sa(dp54
g42
I0
sg43
(lp55
F-1.1451
aF-0.90137
aF-1.0215
aF-1.2628
aF-1.1573
asg45
g13
sg46
I2
sg47
I00
sa(dp56
g42
I0
sg43
(lp57
F-0.96824
aF-0.82282
aF-0.89646
aF-1.0309
aF-0.97505
asg45
g11
sg46
I2
sg47
I00
sasg45
I5
sS'history'
p58
(dp59
I2
g32
((lp60
(g20
g15
g10
tp61
a(g13
g11
g17
tp62
atp63
Rp64
sI3
g32
((lp65
(g13
g11
tp66
a(g17
tp67
ag61
atp68
Rp69
sI4
g32
((lp70
(g11
tp71
ag67
ag61
a(g13
tp72
atp73
Rp74
sI5
g32
((lp75
g71
a(g10
tp76
ag67
a(g20
g15
tp77
ag72
atp78
Rp79
sI6
g32
((lp80
g67
ag71
a(g20
tp81
ag76
a(g15
tp82
ag72
atp83
Rp84
ssb.